target datalayout = "e-m:e-p270:32:32-p271:32:32-p272:64:64-i64:64-i128:128-f80:128-n8:16:32:64-S128"
target triple = "x86_64-pc-linux-gnu"

%struct.Vec_Int_t_ = type { i32, i32, ptr }

@.str.3 = private unnamed_addr constant [2 x i8] c"\0A\00", align 1
@.str.15 = private unnamed_addr constant [14 x i8] c"Errors =%6d  \00", align 1
@.str.16 = private unnamed_addr constant [31 x i8] c"ErrPOs =%5d  (Ave = %5.2f)    \00", align 1
@.str.17 = private unnamed_addr constant [32 x i8] c"Patterns =%5d  (Ave = %5.2f)   \00", align 1
@.str.18 = private unnamed_addr constant [19 x i8] c"Density =%8.4f %%\0A\00", align 1
@.str.19 = private unnamed_addr constant [10 x i8] c"Outputs: \00", align 1
@.str.20 = private unnamed_addr constant [9 x i8] c"%s%d=%d \00", align 1
@.str.21 = private unnamed_addr constant [2 x i8] c">\00", align 1
@.str.22 = private unnamed_addr constant [1 x i8] zeroinitializer, align 1
@.str.23 = private unnamed_addr constant [11 x i8] c"Patterns: \00", align 1

; Function Attrs: inlinehint nounwind uwtable
define internal i32 @Abc_MaxInt(i32 noundef %0, i32 noundef %1) #2 {
  %3 = alloca i32, align 4
  %4 = alloca i32, align 4
  store i32 %0, ptr %3, align 4, !tbaa !10
  store i32 %1, ptr %4, align 4, !tbaa !10
  %5 = load i32, ptr %3, align 4, !tbaa !10
  %6 = load i32, ptr %4, align 4, !tbaa !10
  %7 = icmp sgt i32 %5, %6
  br i1 %7, label %8, label %10

8:                                                ; preds = %2
  %9 = load i32, ptr %3, align 4, !tbaa !10
  br label %12

10:                                               ; preds = %2
  %11 = load i32, ptr %4, align 4, !tbaa !10
  br label %12

12:                                               ; preds = %10, %8
  %13 = phi i32 [ %9, %8 ], [ %11, %10 ]
  ret i32 %13
}

; Function Attrs: inlinehint nounwind uwtable
define internal i32 @Vec_IntEntry(ptr noundef %0, i32 noundef %1) #2 {
  %3 = alloca ptr, align 8
  %4 = alloca i32, align 4
  store ptr %0, ptr %3, align 8, !tbaa !35
  store i32 %1, ptr %4, align 4, !tbaa !10
  %5 = load ptr, ptr %3, align 8, !tbaa !35
  %6 = getelementptr inbounds nuw %struct.Vec_Int_t_, ptr %5, i32 0, i32 2
  %7 = load ptr, ptr %6, align 8, !tbaa !52
  %8 = load i32, ptr %4, align 4, !tbaa !10
  %9 = sext i32 %8 to i64
  %10 = getelementptr inbounds i32, ptr %7, i64 %9
  %11 = load i32, ptr %10, align 4, !tbaa !10
  ret i32 %11
}

; Function Attrs: inlinehint nounwind uwtable
define internal i32 @Vec_IntSize(ptr noundef %0) #2 {
  %2 = alloca ptr, align 8
  store ptr %0, ptr %2, align 8, !tbaa !35
  %3 = load ptr, ptr %2, align 8, !tbaa !35
  %4 = getelementptr inbounds nuw %struct.Vec_Int_t_, ptr %3, i32 0, i32 1
  %5 = load i32, ptr %4, align 4, !tbaa !45
  ret i32 %5
}

; Function Attrs: nounwind uwtable
define void @Patt_ManProfileErrors(ptr noundef %0, ptr noundef %1) #0 {
  %3 = alloca ptr, align 8
  %4 = alloca ptr, align 8
  %5 = alloca i32, align 4
  %6 = alloca i32, align 4
  %7 = alloca [33 x i32], align 16
  %8 = alloca [33 x i32], align 16
  %9 = alloca i32, align 4
  %10 = alloca i32, align 4
  %11 = alloca i32, align 4
  %12 = alloca i32, align 4
  store ptr %0, ptr %3, align 8, !tbaa !35
  store ptr %1, ptr %4, align 8, !tbaa !35
  call void @llvm.lifetime.start.p0(i64 4, ptr %5) #13
  %13 = load ptr, ptr %3, align 8, !tbaa !35
  %14 = call i32 @Vec_IntSize(ptr noundef %13)
  store i32 %14, ptr %5, align 4, !tbaa !10
  call void @llvm.lifetime.start.p0(i64 4, ptr %6) #13
  %15 = load ptr, ptr %4, align 8, !tbaa !35
  %16 = call i32 @Vec_IntSize(ptr noundef %15)
  store i32 %16, ptr %6, align 4, !tbaa !10
  call void @llvm.lifetime.start.p0(i64 132, ptr %7) #13
  call void @llvm.memset.p0.i64(ptr align 16 %7, i8 0, i64 132, i1 false)
  call void @llvm.lifetime.start.p0(i64 132, ptr %8) #13
  call void @llvm.memset.p0.i64(ptr align 16 %8, i8 0, i64 132, i1 false)
  call void @llvm.lifetime.start.p0(i64 4, ptr %9) #13
  call void @llvm.lifetime.start.p0(i64 4, ptr %10) #13
  call void @llvm.lifetime.start.p0(i64 4, ptr %11) #13
  store i32 0, ptr %11, align 4, !tbaa !10
  call void @llvm.lifetime.start.p0(i64 4, ptr %12) #13
  store i32 0, ptr %12, align 4, !tbaa !10
  store i32 0, ptr %9, align 4, !tbaa !10
  br label %17

17:                                               ; preds = %43, %2
  %18 = load i32, ptr %9, align 4, !tbaa !10
  %19 = load ptr, ptr %3, align 8, !tbaa !35
  %20 = call i32 @Vec_IntSize(ptr noundef %19)
  %21 = icmp slt i32 %18, %20
  br i1 %21, label %22, label %26

22:                                               ; preds = %17
  %23 = load ptr, ptr %3, align 8, !tbaa !35
  %24 = load i32, ptr %9, align 4, !tbaa !10
  %25 = call i32 @Vec_IntEntry(ptr noundef %23, i32 noundef %24)
  store i32 %25, ptr %10, align 4, !tbaa !10
  br label %26

26:                                               ; preds = %22, %17
  %27 = phi i1 [ false, %17 ], [ true, %22 ]
  br i1 %27, label %28, label %46

28:                                               ; preds = %26
  %29 = load i32, ptr %10, align 4, !tbaa !10
  %30 = load i32, ptr %11, align 4, !tbaa !10
  %31 = add nsw i32 %30, %29
  store i32 %31, ptr %11, align 4, !tbaa !10
  %32 = load i32, ptr %10, align 4, !tbaa !10
  %33 = icmp slt i32 %32, 32
  br i1 %33, label %34, label %36

34:                                               ; preds = %28
  %35 = load i32, ptr %10, align 4, !tbaa !10
  br label %37

36:                                               ; preds = %28
  br label %37

37:                                               ; preds = %36, %34
  %38 = phi i32 [ %35, %34 ], [ 32, %36 ]
  %39 = sext i32 %38 to i64
  %40 = getelementptr inbounds [33 x i32], ptr %7, i64 0, i64 %39
  %41 = load i32, ptr %40, align 4, !tbaa !10
  %42 = add nsw i32 %41, 1
  store i32 %42, ptr %40, align 4, !tbaa !10
  br label %43

43:                                               ; preds = %37
  %44 = load i32, ptr %9, align 4, !tbaa !10
  %45 = add nsw i32 %44, 1
  store i32 %45, ptr %9, align 4, !tbaa !10
  br label %17, !llvm.loop !161

46:                                               ; preds = %26
  store i32 0, ptr %9, align 4, !tbaa !10
  br label %47

47:                                               ; preds = %73, %46
  %48 = load i32, ptr %9, align 4, !tbaa !10
  %49 = load ptr, ptr %4, align 8, !tbaa !35
  %50 = call i32 @Vec_IntSize(ptr noundef %49)
  %51 = icmp slt i32 %48, %50
  br i1 %51, label %52, label %56

52:                                               ; preds = %47
  %53 = load ptr, ptr %4, align 8, !tbaa !35
  %54 = load i32, ptr %9, align 4, !tbaa !10
  %55 = call i32 @Vec_IntEntry(ptr noundef %53, i32 noundef %54)
  store i32 %55, ptr %10, align 4, !tbaa !10
  br label %56

56:                                               ; preds = %52, %47
  %57 = phi i1 [ false, %47 ], [ true, %52 ]
  br i1 %57, label %58, label %76

58:                                               ; preds = %56
  %59 = load i32, ptr %10, align 4, !tbaa !10
  %60 = load i32, ptr %12, align 4, !tbaa !10
  %61 = add nsw i32 %60, %59
  store i32 %61, ptr %12, align 4, !tbaa !10
  %62 = load i32, ptr %10, align 4, !tbaa !10
  %63 = icmp slt i32 %62, 32
  br i1 %63, label %64, label %66

64:                                               ; preds = %58
  %65 = load i32, ptr %10, align 4, !tbaa !10
  br label %67

66:                                               ; preds = %58
  br label %67

67:                                               ; preds = %66, %64
  %68 = phi i32 [ %65, %64 ], [ 32, %66 ]
  %69 = sext i32 %68 to i64
  %70 = getelementptr inbounds [33 x i32], ptr %8, i64 0, i64 %69
  %71 = load i32, ptr %70, align 4, !tbaa !10
  %72 = add nsw i32 %71, 1
  store i32 %72, ptr %70, align 4, !tbaa !10
  br label %73

73:                                               ; preds = %67
  %74 = load i32, ptr %9, align 4, !tbaa !10
  %75 = add nsw i32 %74, 1
  store i32 %75, ptr %9, align 4, !tbaa !10
  br label %47, !llvm.loop !162

76:                                               ; preds = %56
  %77 = load i32, ptr %11, align 4, !tbaa !10
  %78 = call i32 (ptr, ...) @printf(ptr noundef @.str.15, i32 noundef %77)
  %79 = load i32, ptr %5, align 4, !tbaa !10
  %80 = getelementptr inbounds [33 x i32], ptr %7, i64 0, i64 0
  %81 = load i32, ptr %80, align 16, !tbaa !10
  %82 = sub nsw i32 %79, %81
  %83 = load i32, ptr %11, align 4, !tbaa !10
  %84 = sitofp i32 %83 to double
  %85 = fmul double 1.000000e+00, %84
  %86 = load i32, ptr %5, align 4, !tbaa !10
  %87 = getelementptr inbounds [33 x i32], ptr %7, i64 0, i64 0
  %88 = load i32, ptr %87, align 16, !tbaa !10
  %89 = sub nsw i32 %86, %88
  %90 = call i32 @Abc_MaxInt(i32 noundef 1, i32 noundef %89)
  %91 = sitofp i32 %90 to double
  %92 = fdiv double %85, %91
  %93 = call i32 (ptr, ...) @printf(ptr noundef @.str.16, i32 noundef %82, double noundef %92)
  %94 = load i32, ptr %6, align 4, !tbaa !10
  %95 = load i32, ptr %11, align 4, !tbaa !10
  %96 = sitofp i32 %95 to double
  %97 = fmul double 1.000000e+00, %96
  %98 = load i32, ptr %6, align 4, !tbaa !10
  %99 = sitofp i32 %98 to double
  %100 = fdiv double %97, %99
  %101 = call i32 (ptr, ...) @printf(ptr noundef @.str.17, i32 noundef %94, double noundef %100)
  %102 = load i32, ptr %11, align 4, !tbaa !10
  %103 = sitofp i32 %102 to double
  %104 = fmul double 1.000000e+02, %103
  %105 = load i32, ptr %6, align 4, !tbaa !10
  %106 = sitofp i32 %105 to double
  %107 = fdiv double %104, %106
  %108 = load i32, ptr %5, align 4, !tbaa !10
  %109 = getelementptr inbounds [33 x i32], ptr %7, i64 0, i64 0
  %110 = load i32, ptr %109, align 16, !tbaa !10
  %111 = sub nsw i32 %108, %110
  %112 = call i32 @Abc_MaxInt(i32 noundef 1, i32 noundef %111)
  %113 = sitofp i32 %112 to double
  %114 = fdiv double %107, %113
  %115 = call i32 (ptr, ...) @printf(ptr noundef @.str.18, double noundef %114)
  %116 = call i32 (ptr, ...) @printf(ptr noundef @.str.19)
  store i32 0, ptr %9, align 4, !tbaa !10
  br label %117

117:                                              ; preds = %137, %76
  %118 = load i32, ptr %9, align 4, !tbaa !10
  %119 = icmp sle i32 %118, 32
  br i1 %119, label %120, label %140

120:                                              ; preds = %117
  %121 = load i32, ptr %9, align 4, !tbaa !10
  %122 = sext i32 %121 to i64
  %123 = getelementptr inbounds [33 x i32], ptr %7, i64 0, i64 %122
  %124 = load i32, ptr %123, align 4, !tbaa !10
  %125 = icmp ne i32 %124, 0
  br i1 %125, label %126, label %136

126:                                              ; preds = %120
  %127 = load i32, ptr %9, align 4, !tbaa !10
  %128 = icmp eq i32 %127, 32
  %129 = select i1 %128, ptr @.str.21, ptr @.str.22
  %130 = load i32, ptr %9, align 4, !tbaa !10
  %131 = load i32, ptr %9, align 4, !tbaa !10
  %132 = sext i32 %131 to i64
  %133 = getelementptr inbounds [33 x i32], ptr %7, i64 0, i64 %132
  %134 = load i32, ptr %133, align 4, !tbaa !10
  %135 = call i32 (ptr, ...) @printf(ptr noundef @.str.20, ptr noundef %129, i32 noundef %130, i32 noundef %134)
  br label %136

136:                                              ; preds = %126, %120
  br label %137

137:                                              ; preds = %136
  %138 = load i32, ptr %9, align 4, !tbaa !10
  %139 = add nsw i32 %138, 1
  store i32 %139, ptr %9, align 4, !tbaa !10
  br label %117, !llvm.loop !163

140:                                              ; preds = %117
  %141 = call i32 (ptr, ...) @printf(ptr noundef @.str.3)
  %142 = call i32 (ptr, ...) @printf(ptr noundef @.str.23)
  store i32 0, ptr %9, align 4, !tbaa !10
  br label %143

143:                                              ; preds = %163, %140
  %144 = load i32, ptr %9, align 4, !tbaa !10
  %145 = icmp sle i32 %144, 32
  br i1 %145, label %146, label %166

146:                                              ; preds = %143
  %147 = load i32, ptr %9, align 4, !tbaa !10
  %148 = sext i32 %147 to i64
  %149 = getelementptr inbounds [33 x i32], ptr %8, i64 0, i64 %148
  %150 = load i32, ptr %149, align 4, !tbaa !10
  %151 = icmp ne i32 %150, 0
  br i1 %151, label %152, label %162

152:                                              ; preds = %146
  %153 = load i32, ptr %9, align 4, !tbaa !10
  %154 = icmp eq i32 %153, 32
  %155 = select i1 %154, ptr @.str.21, ptr @.str.22
  %156 = load i32, ptr %9, align 4, !tbaa !10
  %157 = load i32, ptr %9, align 4, !tbaa !10
  %158 = sext i32 %157 to i64
  %159 = getelementptr inbounds [33 x i32], ptr %8, i64 0, i64 %158
  %160 = load i32, ptr %159, align 4, !tbaa !10
  %161 = call i32 (ptr, ...) @printf(ptr noundef @.str.20, ptr noundef %155, i32 noundef %156, i32 noundef %160)
  br label %162

162:                                              ; preds = %152, %146
  br label %163

163:                                              ; preds = %162
  %164 = load i32, ptr %9, align 4, !tbaa !10
  %165 = add nsw i32 %164, 1
  store i32 %165, ptr %9, align 4, !tbaa !10
  br label %143, !llvm.loop !164

166:                                              ; preds = %143
  %167 = call i32 (ptr, ...) @printf(ptr noundef @.str.3)
  call void @llvm.lifetime.end.p0(i64 4, ptr %12) #13
  call void @llvm.lifetime.end.p0(i64 4, ptr %11) #13
  call void @llvm.lifetime.end.p0(i64 4, ptr %10) #13
  call void @llvm.lifetime.end.p0(i64 4, ptr %9) #13
  call void @llvm.lifetime.end.p0(i64 132, ptr %8) #13
  call void @llvm.lifetime.end.p0(i64 132, ptr %7) #13
  call void @llvm.lifetime.end.p0(i64 4, ptr %6) #13
  call void @llvm.lifetime.end.p0(i64 4, ptr %5) #13
  ret void
}