; Function Attrs: nofree nounwind uwtable
define void @Patt_ManProfileErrors(ptr noundef readonly captures(none) %0, ptr noundef readonly captures(none) %1) local_unnamed_addr #9 {
  %3 = alloca [33 x i32], align 16
  %4 = alloca [33 x i32], align 16
  %5 = getelementptr i8, ptr %0, i64 4
  %.val51 = load i32, ptr %5, align 4, !tbaa !30
  %6 = getelementptr i8, ptr %1, i64 4
  %.val50 = load i32, ptr %6, align 4, !tbaa !30
  call void @llvm.lifetime.start.p0(i64 132, ptr nonnull %3) #27
  call void @llvm.memset.p0.i64(ptr noundef nonnull align 16 dereferenceable(132) %3, i8 0, i64 132, i1 false)
  call void @llvm.lifetime.start.p0(i64 132, ptr nonnull %4) #27
  call void @llvm.memset.p0.i64(ptr noundef nonnull align 16 dereferenceable(132) %4, i8 0, i64 132, i1 false)
  %7 = icmp sgt i32 %.val51, 0
  br i1 %7, label %.lr.ph, label %.critedge.preheader

.lr.ph:                                           ; preds = %2
  %8 = getelementptr i8, ptr %0, i64 8
  %.val53 = load ptr, ptr %8, align 8, !tbaa !32
  %wide.trip.count = zext nneg i32 %.val51 to i64
  br label %11

.critedge.preheader:                              ; preds = %11, %2
  %.043.lcssa = phi i32 [ 0, %2 ], [ %14, %11 ]
  %9 = icmp sgt i32 %.val50, 0
  br i1 %9, label %.lr.ph57, label %.critedge2

.lr.ph57:                                         ; preds = %.critedge.preheader
  %10 = getelementptr i8, ptr %1, i64 8
  %.val52 = load ptr, ptr %10, align 8, !tbaa !32
  %wide.trip.count64 = zext nneg i32 %.val50 to i64
  br label %.critedge

11:                                               ; preds = %.lr.ph, %11
  %indvars.iv = phi i64 [ 0, %.lr.ph ], [ %indvars.iv.next, %11 ]
  %.04355 = phi i32 [ 0, %.lr.ph ], [ %14, %11 ]
  %12 = getelementptr inbounds nuw i32, ptr %.val53, i64 %indvars.iv
  %13 = load i32, ptr %12, align 4, !tbaa !35
  %14 = add nsw i32 %13, %.04355
  %15 = tail call i32 @llvm.smin.i32(i32 %13, i32 32)
  %16 = sext i32 %15 to i64
  %17 = getelementptr inbounds [33 x i32], ptr %3, i64 0, i64 %16
  %18 = load i32, ptr %17, align 4, !tbaa !35
  %19 = add nsw i32 %18, 1
  store i32 %19, ptr %17, align 4, !tbaa !35
  %indvars.iv.next = add nuw nsw i64 %indvars.iv, 1
  %exitcond.not = icmp eq i64 %indvars.iv.next, %wide.trip.count
  br i1 %exitcond.not, label %.critedge.preheader, label %11, !llvm.loop !157

.critedge:                                        ; preds = %.lr.ph57, %.critedge
  %indvars.iv61 = phi i64 [ 0, %.lr.ph57 ], [ %indvars.iv.next62, %.critedge ]
  %20 = getelementptr inbounds nuw i32, ptr %.val52, i64 %indvars.iv61
  %21 = load i32, ptr %20, align 4, !tbaa !35
  %22 = tail call i32 @llvm.smin.i32(i32 %21, i32 32)
  %23 = sext i32 %22 to i64
  %24 = getelementptr inbounds [33 x i32], ptr %4, i64 0, i64 %23
  %25 = load i32, ptr %24, align 4, !tbaa !35
  %26 = add nsw i32 %25, 1
  store i32 %26, ptr %24, align 4, !tbaa !35
  %indvars.iv.next62 = add nuw nsw i64 %indvars.iv61, 1
  %exitcond65.not = icmp eq i64 %indvars.iv.next62, %wide.trip.count64
  br i1 %exitcond65.not, label %.critedge2, label %.critedge, !llvm.loop !158

.critedge2:                                       ; preds = %.critedge, %.critedge.preheader
  %27 = tail call i32 (ptr, ...) @printf(ptr noundef nonnull dereferenceable(1) @.str.15, i32 noundef %.043.lcssa)
  %28 = load i32, ptr %3, align 16, !tbaa !35
  %29 = sub nsw i32 %.val51, %28
  %30 = sitofp i32 %.043.lcssa to double
  %31 = tail call noundef i32 @llvm.smax.i32(i32 %29, i32 1)
  %32 = uitofp nneg i32 %31 to double
  %33 = fdiv double %30, %32
  %34 = tail call i32 (ptr, ...) @printf(ptr noundef nonnull dereferenceable(1) @.str.16, i32 noundef %29, double noundef %33)
  %35 = sitofp i32 %.val50 to double
  %36 = fdiv double %30, %35
  %37 = tail call i32 (ptr, ...) @printf(ptr noundef nonnull dereferenceable(1) @.str.17, i32 noundef %.val50, double noundef %36)
  %38 = fmul double %30, 1.000000e+02
  %39 = fdiv double %38, %35
  %40 = fdiv double %39, %32
  %41 = tail call i32 (ptr, ...) @printf(ptr noundef nonnull dereferenceable(1) @.str.18, double noundef %40)
  %42 = tail call i32 (ptr, ...) @printf(ptr noundef nonnull dereferenceable(1) @.str.19)
  br label %43

43:                                               ; preds = %.critedge2, %51
  %indvars.iv66 = phi i64 [ 0, %.critedge2 ], [ %indvars.iv.next67, %51 ]
  %44 = getelementptr inbounds nuw [33 x i32], ptr %3, i64 0, i64 %indvars.iv66
  %45 = load i32, ptr %44, align 4, !tbaa !35
  %.not48 = icmp eq i32 %45, 0
  br i1 %.not48, label %51, label %46

46:                                               ; preds = %43
  %47 = icmp eq i64 %indvars.iv66, 32
  %48 = select i1 %47, ptr @.str.21, ptr @.str.22
  %49 = trunc nuw nsw i64 %indvars.iv66 to i32
  %50 = tail call i32 (ptr, ...) @printf(ptr noundef nonnull dereferenceable(1) @.str.20, ptr noundef nonnull %48, i32 noundef %49, i32 noundef %45)
  br label %51

51:                                               ; preds = %43, %46
  %indvars.iv.next67 = add nuw nsw i64 %indvars.iv66, 1
  %exitcond69.not = icmp eq i64 %indvars.iv.next67, 33
  br i1 %exitcond69.not, label %52, label %43, !llvm.loop !159

52:                                               ; preds = %51
  %putchar = tail call i32 @putchar(i32 10)
  %53 = tail call i32 (ptr, ...) @printf(ptr noundef nonnull dereferenceable(1) @.str.23)
  br label %54

54:                                               ; preds = %52, %62
  %indvars.iv70 = phi i64 [ 0, %52 ], [ %indvars.iv.next71, %62 ]
  %55 = getelementptr inbounds nuw [33 x i32], ptr %4, i64 0, i64 %indvars.iv70
  %56 = load i32, ptr %55, align 4, !tbaa !35
  %.not = icmp eq i32 %56, 0
  br i1 %.not, label %62, label %57

57:                                               ; preds = %54
  %58 = icmp eq i64 %indvars.iv70, 32
  %59 = select i1 %58, ptr @.str.21, ptr @.str.22
  %60 = trunc nuw nsw i64 %indvars.iv70 to i32
  %61 = tail call i32 (ptr, ...) @printf(ptr noundef nonnull dereferenceable(1) @.str.20, ptr noundef nonnull %59, i32 noundef %60, i32 noundef %56)
  br label %62

62:                                               ; preds = %54, %57
  %indvars.iv.next71 = add nuw nsw i64 %indvars.iv70, 1
  %exitcond73.not = icmp eq i64 %indvars.iv.next71, 33
  br i1 %exitcond73.not, label %63, label %54, !llvm.loop !160

63:                                               ; preds = %62
  %putchar47 = tail call i32 @putchar(i32 10)
  call void @llvm.lifetime.end.p0(i64 132, ptr nonnull %4) #27
  call void @llvm.lifetime.end.p0(i64 132, ptr nonnull %3) #27
  ret void
}